target datalayout = "e-m:e-p270:32:32-p271:32:32-p272:64:64-i64:64-i128:128-f80:128-n8:16:32:64-S128"
target triple = "x86_64-pc-linux-gnu"

%struct.timeval = type { i64, i64 }
%struct.uv_timeval64_t = type { i64, i32 }

; Function Attrs: nounwind uwtable
define dso_local i32 @uv_gettimeofday(ptr noundef %0) #0 {
  %2 = alloca i32, align 4
  %3 = alloca ptr, align 8
  %4 = alloca %struct.timeval, align 8
  %5 = alloca i32, align 4
  store ptr %0, ptr %3, align 8
  call void @llvm.lifetime.start.p0(i64 16, ptr %4) #11
  %6 = load ptr, ptr %3, align 8
  %7 = icmp eq ptr %6, null
  br i1 %7, label %8, label %9

8:                                                ; preds = %1
  store i32 -22, ptr %2, align 4
  store i32 1, ptr %5, align 4
  br label %26

9:                                                ; preds = %1
  %10 = call i32 @gettimeofday(ptr noundef %4, ptr noundef null) #11
  %11 = icmp ne i32 %10, 0
  br i1 %11, label %12, label %16

12:                                               ; preds = %9
  %13 = call ptr @__errno_location() #12
  %14 = load i32, ptr %13, align 4
  %15 = sub nsw i32 0, %14
  store i32 %15, ptr %2, align 4
  store i32 1, ptr %5, align 4
  br label %26

16:                                               ; preds = %9
  %17 = getelementptr inbounds nuw %struct.timeval, ptr %4, i32 0, i32 0
  %18 = load i64, ptr %17, align 8
  %19 = load ptr, ptr %3, align 8
  %20 = getelementptr inbounds nuw %struct.uv_timeval64_t, ptr %19, i32 0, i32 0
  store i64 %18, ptr %20, align 8
  %21 = getelementptr inbounds nuw %struct.timeval, ptr %4, i32 0, i32 1
  %22 = load i64, ptr %21, align 8
  %23 = trunc i64 %22 to i32
  %24 = load ptr, ptr %3, align 8
  %25 = getelementptr inbounds nuw %struct.uv_timeval64_t, ptr %24, i32 0, i32 1
  store i32 %23, ptr %25, align 8
  store i32 0, ptr %2, align 4
  store i32 1, ptr %5, align 4
  br label %26

26:                                               ; preds = %16, %12, %8
  call void @llvm.lifetime.end.p0(i64 16, ptr %4) #11
  %27 = load i32, ptr %2, align 4
  ret i32 %27
}