; Function Attrs: nofree nounwind uwtable
define dso_local range(i32 -2147483647, -2147483648) i32 @uv_gettimeofday(ptr noundef writeonly captures(address_is_null) %0) local_unnamed_addr #8 {
  %2 = alloca %struct.timeval, align 8
  call void @llvm.lifetime.start.p0(i64 16, ptr nonnull %2) #23
  %3 = icmp eq ptr %0, null
  br i1 %3, label %16, label %4

4:                                                ; preds = %1
  %5 = call i32 @gettimeofday(ptr noundef nonnull %2, ptr noundef null) #23
  %.not = icmp eq i32 %5, 0
  br i1 %.not, label %10, label %6

6:                                                ; preds = %4
  %7 = tail call ptr @__errno_location() #24
  %8 = load i32, ptr %7, align 4
  %9 = sub nsw i32 0, %8
  br label %16

10:                                               ; preds = %4
  %11 = load i64, ptr %2, align 8
  store i64 %11, ptr %0, align 8
  %12 = getelementptr inbounds nuw i8, ptr %2, i64 8
  %13 = load i64, ptr %12, align 8
  %14 = trunc i64 %13 to i32
  %15 = getelementptr inbounds nuw i8, ptr %0, i64 8
  store i32 %14, ptr %15, align 8
  br label %16

16:                                               ; preds = %1, %10, %6
  %.0 = phi i32 [ %9, %6 ], [ 0, %10 ], [ -22, %1 ]
  call void @llvm.lifetime.end.p0(i64 16, ptr nonnull %2) #23
  ret i32 %.0
}